target datalayout = "e-m:e-p270:32:32-p271:32:32-p272:64:64-i64:64-i128:128-f80:128-n8:16:32:64-S128"
target triple = "x86_64-pc-linux-gnu"

%struct.reftable_flock = type { ptr, i32, ptr }
%struct.lock_file = type { ptr }

; Function Attrs: inlinehint nounwind uwtable
define internal ptr @get_lock_file_path(ptr noundef %0) #2 {
  %2 = alloca ptr, align 8
  store ptr %0, ptr %2, align 8, !tbaa !32
  %3 = load ptr, ptr %2, align 8, !tbaa !32
  %4 = getelementptr inbounds nuw %struct.lock_file, ptr %3, i32 0, i32 0
  %5 = load ptr, ptr %4, align 8, !tbaa !38
  %6 = call ptr @get_tempfile_path(ptr noundef %5)
  ret ptr %6
}

; Function Attrs: inlinehint nounwind uwtable
define internal i32 @get_lock_file_fd(ptr noundef %0) #2 {
  %2 = alloca ptr, align 8
  store ptr %0, ptr %2, align 8, !tbaa !32
  %3 = load ptr, ptr %2, align 8, !tbaa !32
  %4 = getelementptr inbounds nuw %struct.lock_file, ptr %3, i32 0, i32 0
  %5 = load ptr, ptr %4, align 8, !tbaa !38
  %6 = call i32 @get_tempfile_fd(ptr noundef %5)
  ret i32 %6
}

; Function Attrs: inlinehint nounwind uwtable
define internal i32 @hold_lock_file_for_update_timeout(ptr noundef %0, ptr noundef %1, i32 noundef %2, i64 noundef %3) #2 {
  %5 = alloca ptr, align 8
  %6 = alloca ptr, align 8
  %7 = alloca i32, align 4
  %8 = alloca i64, align 8
  store ptr %0, ptr %5, align 8, !tbaa !32
  store ptr %1, ptr %6, align 8, !tbaa !9
  store i32 %2, ptr %7, align 4, !tbaa !26
  store i64 %3, ptr %8, align 8, !tbaa !31
  %9 = load ptr, ptr %5, align 8, !tbaa !32
  %10 = load ptr, ptr %6, align 8, !tbaa !9
  %11 = load i32, ptr %7, align 4, !tbaa !26
  %12 = load i64, ptr %8, align 8, !tbaa !31
  %13 = call i32 @hold_lock_file_for_update_timeout_mode(ptr noundef %9, ptr noundef %10, i32 noundef %11, i64 noundef %12, i32 noundef 438)
  ret i32 %13
}

; Function Attrs: nounwind uwtable
define dso_local i32 @flock_acquire(ptr noundef %0, ptr noundef %1, i64 noundef %2) #0 {
  %4 = alloca i32, align 4
  %5 = alloca ptr, align 8
  %6 = alloca ptr, align 8
  %7 = alloca i64, align 8
  %8 = alloca ptr, align 8
  %9 = alloca i32, align 4
  %10 = alloca i32, align 4
  store ptr %0, ptr %5, align 8, !tbaa !29
  store ptr %1, ptr %6, align 8, !tbaa !9
  store i64 %2, ptr %7, align 8, !tbaa !31
  call void @llvm.lifetime.start.p0(i64 8, ptr %8) #7
  call void @llvm.lifetime.start.p0(i64 4, ptr %9) #7
  %11 = call ptr @reftable_malloc(i64 noundef 8)
  store ptr %11, ptr %8, align 8, !tbaa !32
  %12 = load ptr, ptr %8, align 8, !tbaa !32
  %13 = icmp ne ptr %12, null
  br i1 %13, label %15, label %14

14:                                               ; preds = %3
  store i32 -13, ptr %4, align 4
  store i32 1, ptr %10, align 4
  br label %41

15:                                               ; preds = %3
  %16 = load ptr, ptr %8, align 8, !tbaa !32
  %17 = load ptr, ptr %6, align 8, !tbaa !9
  %18 = load i64, ptr %7, align 8, !tbaa !31
  %19 = call i32 @hold_lock_file_for_update_timeout(ptr noundef %16, ptr noundef %17, i32 noundef 2, i64 noundef %18)
  store i32 %19, ptr %9, align 4, !tbaa !26
  %20 = load i32, ptr %9, align 4, !tbaa !26
  %21 = icmp slt i32 %20, 0
  br i1 %21, label %22, label %29

22:                                               ; preds = %15
  %23 = load ptr, ptr %8, align 8, !tbaa !32
  call void @reftable_free(ptr noundef %23)
  %24 = call ptr @__errno_location() #8
  %25 = load i32, ptr %24, align 4, !tbaa !26
  %26 = icmp eq i32 %25, 17
  br i1 %26, label %27, label %28

27:                                               ; preds = %22
  store i32 -5, ptr %4, align 4
  store i32 1, ptr %10, align 4
  br label %41

28:                                               ; preds = %22
  store i32 -1, ptr %4, align 4
  store i32 1, ptr %10, align 4
  br label %41

29:                                               ; preds = %15
  %30 = load ptr, ptr %8, align 8, !tbaa !32
  %31 = call i32 @get_lock_file_fd(ptr noundef %30)
  %32 = load ptr, ptr %5, align 8, !tbaa !29
  %33 = getelementptr inbounds nuw %struct.reftable_flock, ptr %32, i32 0, i32 1
  store i32 %31, ptr %33, align 8, !tbaa !34
  %34 = load ptr, ptr %8, align 8, !tbaa !32
  %35 = call ptr @get_lock_file_path(ptr noundef %34)
  %36 = load ptr, ptr %5, align 8, !tbaa !29
  %37 = getelementptr inbounds nuw %struct.reftable_flock, ptr %36, i32 0, i32 0
  store ptr %35, ptr %37, align 8, !tbaa !36
  %38 = load ptr, ptr %8, align 8, !tbaa !32
  %39 = load ptr, ptr %5, align 8, !tbaa !29
  %40 = getelementptr inbounds nuw %struct.reftable_flock, ptr %39, i32 0, i32 2
  store ptr %38, ptr %40, align 8, !tbaa !37
  store i32 0, ptr %4, align 4
  store i32 1, ptr %10, align 4
  br label %41

41:                                               ; preds = %29, %28, %27, %14
  call void @llvm.lifetime.end.p0(i64 4, ptr %9) #7
  call void @llvm.lifetime.end.p0(i64 8, ptr %8) #7
  %42 = load i32, ptr %4, align 4
  ret i32 %42
}