; Function Attrs: nounwind uwtable
define dso_local range(i32 -13, 1) i32 @flock_acquire(ptr noundef writeonly captures(none) %0, ptr noundef %1, i64 noundef %2) local_unnamed_addr #0 {
  %4 = tail call ptr @reftable_malloc(i64 noundef 8) #5
  %.not = icmp eq ptr %4, null
  br i1 %.not, label %17, label %5

5:                                                ; preds = %3
  %6 = tail call i32 @hold_lock_file_for_update_timeout_mode(ptr noundef nonnull %4, ptr noundef %1, i32 noundef 2, i64 noundef %2, i32 noundef 438) #5
  %7 = icmp slt i32 %6, 0
  br i1 %7, label %8, label %12

8:                                                ; preds = %5
  tail call void @reftable_free(ptr noundef nonnull %4) #5
  %9 = tail call ptr @__errno_location() #6
  %10 = load i32, ptr %9, align 4, !tbaa !24
  %11 = icmp eq i32 %10, 17
  %. = select i1 %11, i32 -5, i32 -1
  br label %17

12:                                               ; preds = %5
  %.val = load ptr, ptr %4, align 8, !tbaa !25
  %13 = tail call i32 @get_tempfile_fd(ptr noundef %.val) #5
  %14 = getelementptr inbounds nuw i8, ptr %0, i64 8
  store i32 %13, ptr %14, align 8, !tbaa !27
  %.val13 = load ptr, ptr %4, align 8, !tbaa !25
  %15 = tail call ptr @get_tempfile_path(ptr noundef %.val13) #5
  store ptr %15, ptr %0, align 8, !tbaa !29
  %16 = getelementptr inbounds nuw i8, ptr %0, i64 16
  store ptr %4, ptr %16, align 8, !tbaa !30
  br label %17

17:                                               ; preds = %8, %3, %12
  %.0 = phi i32 [ 0, %12 ], [ -13, %3 ], [ %., %8 ]
  ret i32 %.0
}